(lp0
ccopy_reg
_reconstructor
p1
(cSentence
Sentence
p2
c__builtin__
object
p3
Ntp4
Rp5
(dp6
S'sent_pos'
p7
I0
sS'labels'
p8
(lp9
S'NM'
p10
ag10
ag10
ag10
aS'/'
p11
ag10
aS'//'
p12
ag10
ag10
ag12
ag10
ag12
ag10
ag10
ag10
ag12
ag10
ag10
ag10
ag10
ag10
ag12
ag10
ag10
ag10
ag10
ag10
ag10
ag10
ag11
ag10
ag11
ag10
ag10
ag10
ag10
ag12
ag10
ag10
ag12
ag10
ag10
ag10
ag10
ag10
ag10
ag12
ag10
ag10
ag10
ag10
ag12
ag10
ag10
ag10
ag12
ag11
ag10
ag12
ag10
ag10
ag10
ag12
ag10
ag10
ag10
ag10
ag11
ag10
ag10
ag12
ag11
ag10
ag10
ag10
ag10
ag10
ag10
ag12
ag10
ag10
ag10
ag10
ag10
ag10
ag12
ag10
ag10
ag10
ag12
ag10
asS'ann_sent'
p13
S"My name is Amit / from Srinagar // .Srinagar is very // very beautiful // .And 18 months ago, // I had another job at Google, // and I pitched this idea of doing something / with museums / and art to my boss // who's actually here, // and she allowed me to do it // .And it took 18 months // .A lot of fun, // negotiations / and stories, // I can tell you, // with 17 very interesting museums / from nine countries // .But / I'm going to focus on the demo // .There are a lot of stories about // why we did this // ."
p14
sS'st'
p15
g1
(cnltk.tag.stanford
StanfordNERTagger
p16
g3
Ntp17
Rp18
(dp19
S'_encoding'
p20
S'utf8'
p21
sS'java_options'
p22
S'-mx1000m'
p23
sS'_stanford_model'
p24
S'/Users/vignesh/Documents/Phd/Courses/fall15/CS521SNLP/ClassProject/StanfordNERTagger/stanford-ner-2015-04-20/classifiers/english.muc.7class.distsim.crf.ser.gz'
p25
sS'_stanford_jar'
p26
S'/Users/vignesh/Documents/Phd/Courses/fall15/CS521SNLP/ClassProject/StanfordNERTagger/stanford-ner-2015-04-20/stanford-ner.jar'
p27
sbsS'orig_sent'
p28
S"My name is Amit  from Srinagar  .Srinagar is very  very beautiful  .And 18 months ago,  I had another job at Google,  and I pitched this idea of doing something  with museums  and art to my boss  who's actually here,  and she allowed me to do it  .And it took 18 months  .A lot of fun,  negotiations  and stories,  I can tell you,  with 17 very interesting museums  from nine countries  .But  I'm going to focus on the demo  .There are a lot of stories about  why we did this  ."
p29
sS'pos_tags'
p30
(dp31
S'beautiful'
p32
S'JJ'
p33
sS'and'
p34
S'CC'
p35
sS'art'
p36
S'NN'
p37
sS'we'
p38
S'PRP'
p39
sS'do'
p40
S'VB'
p41
sS'doing'
p42
S'VBG'
p43
sS'demo'
p44
g37
sS'is'
p45
S'VBZ'
p46
sS'There'
p47
S'EX'
p48
sS'idea'
p49
g37
sS'at'
p50
S'IN'
p51
sS'another'
p52
S'DT'
p53
sS'allowed'
p54
S'VBD'
p55
sS'actually'
p56
S'RB'
p57
sS'negotiations'
p58
S'NNS'
p59
sS'are'
p60
S'VBP'
p61
sS'from'
p62
g51
sS'interesting'
p63
g33
sS'to'
p64
S'TO'
p65
sS'with'
p66
g51
sS'had'
p67
g55
sS'But'
p68
g35
sS'whos'
p69
g59
sS'I'
p70
g39
sS'going'
p71
g43
sS'lot'
p72
g37
sS'it'
p73
g39
sS'nine'
p74
S'CD'
p75
sS'you'
p76
g39
sS'Srinagar'
p77
S'NNP'
p78
sS'tell'
p79
g41
sS'can'
p80
S'MD'
p81
sS'A'
p82
g53
sS'ago'
p83
g57
sS'Im'
p84
g78
sS'very'
p85
g57
sS'focus'
p86
g41
sS'took'
p87
g55
sS'here'
p88
g57
sS'boss'
p89
g37
sS'me'
p90
g39
sS'job'
p91
g37
sS'a'
p92
g53
sS'Amit'
p93
g78
sS'pitched'
p94
g55
sS'My'
p95
S'PRP$'
p96
sS'why'
p97
S'WRB'
p98
sS'And'
p99
g35
sS'on'
p100
g51
sS'about'
p101
g51
sS'Google'
p102
g78
sS'name'
p103
g37
sS'17'
p104
g75
sS'countries'
p105
g59
sS'this'
p106
g53
sS'18'
p107
g75
sS'months'
p108
g59
sS'museums'
p109
g59
sS'did'
p110
g55
sS'stories'
p111
g59
sS'she'
p112
g39
sS'of'
p113
g51
sS'fun'
p114
g37
sS'the'
p115
g53
sS'my'
p116
g96
sS'something'
p117
g37
ssS'candidatepos'
p118
(lp119
I0
aI2
aI7
aI10
aI15
aI22
aI32
aI44
aI47
aI53
aI60
aI71
aI78
aI81
aI88
aI94
aI98
aI102
aI110
aI114
aI117
aI126
aI132
aI134
aI142
aI147
aI152
aI155
aI161
aI171
aI178
aI186
aI192
aI196
aI199
aI202
aI208
aI216
aI225
aI232
aI238
aI242
aI250
aI253
aI256
aI259
aI263
aI270
aI273
aI278
aI281
aI289
aI294
aI298
aI301
aI307
aI322
aI328
aI338
aI342
aI346
aI351
aI357
aI364
aI367
aI372
aI384
aI392
aI399
aI404
aI415
aI422
aI428
aI434
aI437
aI443
aI446
aI450
aI456
aI465
aI469
aI471
aI475
aI478
aI486
aI493
aI499
aI502
aI506
aI512
aI516
asS'server'
p120
(ijsonrpc
ServerProxy
p121
(dp122
S'_ServerProxy__data_serializer'
p123
(ijsonrpc
JsonRpc20
p124
(dp125
S'dumps'
p126
cjson
dumps
p127
sS'loads'
p128
cjson
loads
p129
sbsS'_ServerProxy__transport'
p130
(ijsonrpc
TransportTcpIp
p131
(dp132
S'addr'
p133
(S'127.0.0.1'
p134
I8080
tp135
sS's_prot'
p136
I1
sS's_type'
p137
I2
sS's'
p138
NsS'limit'
p139
I4096
sS'timeout'
p140
F5.0
sS'log'
p141
cjsonrpc
log_dummy
p142
sbsbsS'type'
p143
S'test'
p144
sba.